target datalayout = "e-m:e-p270:32:32-p271:32:32-p272:64:64-i64:64-i128:128-f80:128-n8:16:32:64-S128"
target triple = "x86_64-unknown-linux-gnu"

%"class.pugi::xpath_node" = type { %"class.pugi::xml_node", %"class.pugi::xml_attribute" }
%"class.pugi::xml_node" = type { ptr }
%"class.pugi::xml_attribute" = type { ptr }

; Function Attrs: mustprogress nounwind uwtable
define noundef zeroext i1 @_ZNK4pugi13xml_attributeneERKS0_(ptr noundef nonnull align 8 dereferenceable(8) %this, ptr noundef nonnull align 8 dereferenceable(8) %r) #0 align 2 {
entry:
  %this.addr = alloca ptr, align 8
  %r.addr = alloca ptr, align 8
  store ptr %this, ptr %this.addr, align 8
  store ptr %r, ptr %r.addr, align 8
  %this1 = load ptr, ptr %this.addr, align 8
  %_attr = getelementptr inbounds %"class.pugi::xml_attribute", ptr %this1, i32 0, i32 0
  %0 = load ptr, ptr %_attr, align 8
  %1 = load ptr, ptr %r.addr, align 8
  %_attr2 = getelementptr inbounds %"class.pugi::xml_attribute", ptr %1, i32 0, i32 0
  %2 = load ptr, ptr %_attr2, align 8
  %cmp = icmp ne ptr %0, %2
  ret i1 %cmp
}

; Function Attrs: mustprogress nounwind uwtable
define noundef zeroext i1 @_ZNK4pugi8xml_nodeneERKS0_(ptr noundef nonnull align 8 dereferenceable(8) %this, ptr noundef nonnull align 8 dereferenceable(8) %r) #0 align 2 {
entry:
  %this.addr = alloca ptr, align 8
  %r.addr = alloca ptr, align 8
  store ptr %this, ptr %this.addr, align 8
  store ptr %r, ptr %r.addr, align 8
  %this1 = load ptr, ptr %this.addr, align 8
  %_root = getelementptr inbounds %"class.pugi::xml_node", ptr %this1, i32 0, i32 0
  %0 = load ptr, ptr %_root, align 8
  %1 = load ptr, ptr %r.addr, align 8
  %_root2 = getelementptr inbounds %"class.pugi::xml_node", ptr %1, i32 0, i32 0
  %2 = load ptr, ptr %_root2, align 8
  %cmp = icmp ne ptr %0, %2
  ret i1 %cmp
}

; Function Attrs: mustprogress nounwind uwtable
define noundef zeroext i1 @_ZNK4pugi10xpath_nodeneERKS0_(ptr noundef nonnull align 8 dereferenceable(16) %this, ptr noundef nonnull align 8 dereferenceable(16) %n) #0 align 2 {
entry:
  %this.addr = alloca ptr, align 8
  %n.addr = alloca ptr, align 8
  store ptr %this, ptr %this.addr, align 8
  store ptr %n, ptr %n.addr, align 8
  %this1 = load ptr, ptr %this.addr, align 8
  %_node = getelementptr inbounds %"class.pugi::xpath_node", ptr %this1, i32 0, i32 0
  %0 = load ptr, ptr %n.addr, align 8
  %_node2 = getelementptr inbounds %"class.pugi::xpath_node", ptr %0, i32 0, i32 0
  %call = call noundef zeroext i1 @_ZNK4pugi8xml_nodeneERKS0_(ptr noundef nonnull align 8 dereferenceable(8) %_node, ptr noundef nonnull align 8 dereferenceable(8) %_node2)
  br i1 %call, label %lor.end, label %lor.rhs

lor.rhs:                                          ; preds = %entry
  %_attribute = getelementptr inbounds %"class.pugi::xpath_node", ptr %this1, i32 0, i32 1
  %1 = load ptr, ptr %n.addr, align 8
  %_attribute3 = getelementptr inbounds %"class.pugi::xpath_node", ptr %1, i32 0, i32 1
  %call4 = call noundef zeroext i1 @_ZNK4pugi13xml_attributeneERKS0_(ptr noundef nonnull align 8 dereferenceable(8) %_attribute, ptr noundef nonnull align 8 dereferenceable(8) %_attribute3)
  br label %lor.end

lor.end:                                          ; preds = %lor.rhs, %entry
  %2 = phi i1 [ true, %entry ], [ %call4, %lor.rhs ]
  ret i1 %2
}